; Function Attrs: mustprogress uwtable
define hidden noundef i64 @_ZNK11opencv_onnx9TypeProto12ByteSizeLongEv(ptr noundef nonnull align 8 dereferenceable(48) %0) unnamed_addr #3 align 2 {
  %2 = getelementptr inbounds nuw i8, ptr %0, i64 16
  %3 = load i32, ptr %2, align 8, !tbaa !51
  %4 = and i32 %3, 1
  %.not = icmp eq i32 %4, 0
  br i1 %.not, label %23, label %5

5:                                                ; preds = %1
  %6 = getelementptr inbounds nuw i8, ptr %0, i64 24
  %7 = load ptr, ptr %6, align 8, !tbaa !41
  %8 = ptrtoint ptr %7 to i64
  %9 = and i64 %8, -2
  %10 = inttoptr i64 %9 to ptr
  %11 = getelementptr inbounds nuw i8, ptr %10, i64 8
  %12 = load i64, ptr %11, align 8, !tbaa !53
  %13 = trunc i64 %12 to i32
  %14 = or i32 %13, 1
  %15 = tail call range(i32 0, 33) i32 @llvm.ctlz.i32(i32 %14, i1 true)
  %16 = xor i32 %15, 31
  %17 = mul nuw nsw i32 %16, 9
  %18 = add nuw nsw i32 %17, 73
  %19 = lshr i32 %18, 6
  %20 = zext nneg i32 %19 to i64
  %21 = add i64 %12, 1
  %22 = add i64 %21, %20
  br label %23

23:                                               ; preds = %5, %1
  %.0 = phi i64 [ %22, %5 ], [ 0, %1 ]
  %24 = getelementptr inbounds nuw i8, ptr %0, i64 40
  %25 = load i32, ptr %24, align 8, !tbaa !51
  %cond = icmp eq i32 %25, 1
  br i1 %cond, label %26, label %75

26:                                               ; preds = %23
  %27 = getelementptr inbounds nuw i8, ptr %0, i64 32
  %28 = load ptr, ptr %27, align 8, !tbaa !46
  %29 = getelementptr inbounds nuw i8, ptr %28, i64 16
  %30 = load i32, ptr %29, align 4, !tbaa !51
  %31 = and i32 %30, 3
  %.not.i.i = icmp eq i32 %31, 0
  br i1 %.not.i.i, label %_ZN6google8protobuf8internal14WireFormatLite11MessageSizeIN11opencv_onnx16TypeProto_TensorEEEmRKT_.exit, label %32

32:                                               ; preds = %26
  %33 = and i32 %30, 1
  %.not6.i.i = icmp eq i32 %33, 0
  br i1 %.not6.i.i, label %48, label %34

34:                                               ; preds = %32
  %35 = getelementptr inbounds nuw i8, ptr %28, i64 24
  %36 = load ptr, ptr %35, align 8, !tbaa !277
  %37 = tail call noundef i64 @_ZNK11opencv_onnx16TensorShapeProto12ByteSizeLongEv(ptr noundef nonnull align 8 dereferenceable(48) %36)
  %38 = trunc i64 %37 to i32
  %39 = or i32 %38, 1
  %40 = tail call range(i32 0, 33) i32 @llvm.ctlz.i32(i32 %39, i1 true)
  %41 = xor i32 %40, 31
  %42 = mul nuw nsw i32 %41, 9
  %43 = add nuw nsw i32 %42, 73
  %44 = lshr i32 %43, 6
  %45 = zext nneg i32 %44 to i64
  %46 = add i64 %37, 1
  %47 = add i64 %46, %45
  br label %48

48:                                               ; preds = %34, %32
  %.1.i.i = phi i64 [ %47, %34 ], [ 0, %32 ]
  %49 = and i32 %30, 2
  %.not7.i.i = icmp eq i32 %49, 0
  br i1 %.not7.i.i, label %_ZN6google8protobuf8internal14WireFormatLite11MessageSizeIN11opencv_onnx16TypeProto_TensorEEEmRKT_.exit, label %50

50:                                               ; preds = %48
  %51 = getelementptr inbounds nuw i8, ptr %28, i64 32
  %52 = load i32, ptr %51, align 8, !tbaa !280
  %53 = or i32 %52, 1
  %54 = sext i32 %53 to i64
  %55 = tail call range(i64 0, 65) i64 @llvm.ctlz.i64(i64 %54, i1 true)
  %56 = xor i64 %55, 63
  %57 = mul nuw nsw i64 %56, 9
  %58 = add nuw nsw i64 %57, 73
  %59 = lshr i64 %58, 6
  %60 = add i64 %.1.i.i, 1
  %61 = add i64 %60, %59
  br label %_ZN6google8protobuf8internal14WireFormatLite11MessageSizeIN11opencv_onnx16TypeProto_TensorEEEmRKT_.exit

_ZN6google8protobuf8internal14WireFormatLite11MessageSizeIN11opencv_onnx16TypeProto_TensorEEEmRKT_.exit: ; preds = %26, %48, %50
  %.0.i.i = phi i64 [ %61, %50 ], [ %.1.i.i, %48 ], [ 0, %26 ]
  %62 = getelementptr inbounds nuw i8, ptr %28, i64 20
  %63 = tail call noundef i64 @_ZNK6google8protobuf7Message29MaybeComputeUnknownFieldsSizeEmPNS0_8internal10CachedSizeE(ptr noundef nonnull align 8 dereferenceable(40) %28, i64 noundef %.0.i.i, ptr noundef nonnull %62)
  %64 = trunc i64 %63 to i32
  %65 = or i32 %64, 1
  %66 = tail call range(i32 0, 33) i32 @llvm.ctlz.i32(i32 %65, i1 true)
  %67 = xor i32 %66, 31
  %68 = mul nuw nsw i32 %67, 9
  %69 = add nuw nsw i32 %68, 73
  %70 = lshr i32 %69, 6
  %71 = zext nneg i32 %70 to i64
  %72 = add i64 %.0, 1
  %73 = add i64 %72, %63
  %74 = add i64 %73, %71
  br label %75

75:                                               ; preds = %23, %_ZN6google8protobuf8internal14WireFormatLite11MessageSizeIN11opencv_onnx16TypeProto_TensorEEEmRKT_.exit
  %.1 = phi i64 [ %74, %_ZN6google8protobuf8internal14WireFormatLite11MessageSizeIN11opencv_onnx16TypeProto_TensorEEEmRKT_.exit ], [ %.0, %23 ]
  %76 = getelementptr inbounds nuw i8, ptr %0, i64 20
  %77 = tail call noundef i64 @_ZNK6google8protobuf7Message29MaybeComputeUnknownFieldsSizeEmPNS0_8internal10CachedSizeE(ptr noundef nonnull align 8 dereferenceable(16) %0, i64 noundef %.1, ptr noundef nonnull %76)
  ret i64 %77
}